; ModuleID = '62/3058.c'
source_filename = "62/3058.c"
target datalayout = "e-m:e-p270:32:32-p271:32:32-p272:64:64-i64:64-f80:128-n8:16:32:64-S128"
target triple = "x86_64-pc-linux-gnu"

@.str = private unnamed_addr constant [3 x i8] c"%c\00", align 1

; Function Attrs: noinline nounwind uwtable
define dso_local i32 @main() #0 {
  %1 = alloca i32, align 4
  %2 = alloca i32, align 4
  %3 = alloca [2 x [100 x i8]], align 16
  %4 = alloca i32, align 4
  %5 = alloca i32, align 4
  store i32 0, i32* %1, align 4
  %6 = getelementptr inbounds [2 x [100 x i8]], [2 x [100 x i8]]* %3, i64 0, i64 0
  %7 = getelementptr inbounds [100 x i8], [100 x i8]* %6, i64 0, i64 0
  %8 = call i32 (i8*, ...) bitcast (i32 (...)* @gets to i32 (i8*, ...)*)(i8* %7)
  %9 = getelementptr inbounds [2 x [100 x i8]], [2 x [100 x i8]]* %3, i64 0, i64 0
  %10 = getelementptr inbounds [100 x i8], [100 x i8]* %9, i64 0, i64 0
  %11 = call i64 @strlen(i8* %10) #3
  %12 = trunc i64 %11 to i32
  store i32 %12, i32* %2, align 4
  store i32 1, i32* %5, align 4
  %13 = getelementptr inbounds [2 x [100 x i8]], [2 x [100 x i8]]* %3, i64 0, i64 0
  %14 = getelementptr inbounds [100 x i8], [100 x i8]* %13, i64 0, i64 0
  %15 = load i8, i8* %14, align 16
  %16 = getelementptr inbounds [2 x [100 x i8]], [2 x [100 x i8]]* %3, i64 0, i64 1
  %17 = getelementptr inbounds [100 x i8], [100 x i8]* %16, i64 0, i64 0
  store i8 %15, i8* %17, align 4
  store i32 1, i32* %4, align 4
  br label %18

18:                                               ; preds = %60, %0
  %19 = load i32, i32* %4, align 4
  %20 = load i32, i32* %2, align 4
  %21 = icmp slt i32 %19, %20
  br i1 %21, label %22, label %63

22:                                               ; preds = %18
  %23 = getelementptr inbounds [2 x [100 x i8]], [2 x [100 x i8]]* %3, i64 0, i64 0
  %24 = load i32, i32* %4, align 4
  %25 = sext i32 %24 to i64
  %26 = getelementptr inbounds [100 x i8], [100 x i8]* %23, i64 0, i64 %25
  %27 = load i8, i8* %26, align 1
  %28 = sext i8 %27 to i32
  %29 = icmp ne i32 %28, 32
  br i1 %29, label %47, label %30

30:                                               ; preds = %22
  %31 = getelementptr inbounds [2 x [100 x i8]], [2 x [100 x i8]]* %3, i64 0, i64 0
  %32 = load i32, i32* %4, align 4
  %33 = sext i32 %32 to i64
  %34 = getelementptr inbounds [100 x i8], [100 x i8]* %31, i64 0, i64 %33
  %35 = load i8, i8* %34, align 1
  %36 = sext i8 %35 to i32
  %37 = icmp eq i32 %36, 32
  br i1 %37, label %38, label %59

38:                                               ; preds = %30
  %39 = getelementptr inbounds [2 x [100 x i8]], [2 x [100 x i8]]* %3, i64 0, i64 0
  %40 = load i32, i32* %4, align 4
  %41 = sub nsw i32 %40, 1
  %42 = sext i32 %41 to i64
  %43 = getelementptr inbounds [100 x i8], [100 x i8]* %39, i64 0, i64 %42
  %44 = load i8, i8* %43, align 1
  %45 = sext i8 %44 to i32
  %46 = icmp ne i32 %45, 32
  br i1 %46, label %47, label %59

47:                                               ; preds = %38, %22
  %48 = getelementptr inbounds [2 x [100 x i8]], [2 x [100 x i8]]* %3, i64 0, i64 0
  %49 = load i32, i32* %4, align 4
  %50 = sext i32 %49 to i64
  %51 = getelementptr inbounds [100 x i8], [100 x i8]* %48, i64 0, i64 %50
  %52 = load i8, i8* %51, align 1
  %53 = getelementptr inbounds [2 x [100 x i8]], [2 x [100 x i8]]* %3, i64 0, i64 1
  %54 = load i32, i32* %5, align 4
  %55 = sext i32 %54 to i64
  %56 = getelementptr inbounds [100 x i8], [100 x i8]* %53, i64 0, i64 %55
  store i8 %52, i8* %56, align 1
  %57 = load i32, i32* %5, align 4
  %58 = add nsw i32 %57, 1
  store i32 %58, i32* %5, align 4
  br label %59

59:                                               ; preds = %47, %38, %30
  br label %60

60:                                               ; preds = %59
  %61 = load i32, i32* %4, align 4
  %62 = add nsw i32 %61, 1
  store i32 %62, i32* %4, align 4
  br label %18

63:                                               ; preds = %18
  %64 = getelementptr inbounds [2 x [100 x i8]], [2 x [100 x i8]]* %3, i64 0, i64 1
  %65 = load i32, i32* %5, align 4
  %66 = sext i32 %65 to i64
  %67 = getelementptr inbounds [100 x i8], [100 x i8]* %64, i64 0, i64 %66
  store i8 0, i8* %67, align 1
  %68 = getelementptr inbounds [2 x [100 x i8]], [2 x [100 x i8]]* %3, i64 0, i64 1
  %69 = getelementptr inbounds [100 x i8], [100 x i8]* %68, i64 0, i64 0
  %70 = call i64 @strlen(i8* %69) #3
  %71 = trunc i64 %70 to i32
  store i32 %71, i32* %2, align 4
  store i32 0, i32* %4, align 4
  br label %72

72:                                               ; preds = %84, %63
  %73 = load i32, i32* %4, align 4
  %74 = load i32, i32* %2, align 4
  %75 = icmp slt i32 %73, %74
  br i1 %75, label %76, label %87

76:                                               ; preds = %72
  %77 = getelementptr inbounds [2 x [100 x i8]], [2 x [100 x i8]]* %3, i64 0, i64 1
  %78 = load i32, i32* %4, align 4
  %79 = sext i32 %78 to i64
  %80 = getelementptr inbounds [100 x i8], [100 x i8]* %77, i64 0, i64 %79
  %81 = load i8, i8* %80, align 1
  %82 = sext i8 %81 to i32
  %83 = call i32 (i8*, ...) @printf(i8* getelementptr inbounds ([3 x i8], [3 x i8]* @.str, i64 0, i64 0), i32 %82)
  br label %84

84:                                               ; preds = %76
  %85 = load i32, i32* %4, align 4
  %86 = add nsw i32 %85, 1
  store i32 %86, i32* %4, align 4
  br label %72

87:                                               ; preds = %72
  ret i32 0
}

declare dso_local i32 @gets(...) #1

; Function Attrs: nounwind readonly
declare dso_local i64 @strlen(i8*) #2

declare dso_local i32 @printf(i8*, ...) #1


!llvm.module.flags = !{!0}
!llvm.ident = !{!1}

!0 = !{i32 1, !"wchar_size", i32 4}
!1 = !{!"clang version 10.0.0-4ubuntu1 "}
